target datalayout = "e-m:e-p270:32:32-p271:32:32-p272:64:64-i64:64-i128:128-f80:128-n8:16:32:64-S128"
target triple = "x86_64-pc-linux-gnu"

%struct.AVCodecTag = type { i32, i32 }
%struct.AVProbeData = type { ptr, ptr, i32, ptr }
%struct.AVRational = type { i32, i32 }
%struct.AVFormatContext = type { ptr, ptr, ptr, ptr, ptr, i32, i32, ptr, i32, ptr, i32, ptr, ptr, i64, i64, i64, i32, i32, i32, i64, i64, ptr, i32, i32, ptr, i32, i32, i32, i32, ptr, i64, i32, i32, %struct.AVIOInterruptCB, i32, i32, i32, i32, i64, i32, i32, i32, i32, i32, i32, i32, i32, i32, i32, i32, i32, i64, i32, i32, i32, i32, i32, ptr, ptr, ptr, ptr, i32, ptr, ptr, ptr, ptr, i32, ptr, ptr, i64, ptr, ptr, ptr, i64 }
%struct.AVIOInterruptCB = type { ptr, ptr }
%struct.FFStream = type { %struct.AVStream, ptr, i32, ptr, i32, ptr, i32, %struct.anon, i32, i32, %struct.FFFrac, ptr, ptr, i32, i32, i64, i64, i32, i32, i32, i64, i64, i64, i32, i64, i64, i64, i32, i32, [17 x i64], [17 x i8], [17 x i64], i64, i8, i8, %struct.AVRational, %struct.AVProbeData, ptr, i64, i32, i32, i32, ptr, i32, i32, i64, i64, ptr, %struct.AVRational }
%struct.AVStream = type { ptr, i32, i32, ptr, ptr, %struct.AVRational, i64, i64, i64, i32, i32, %struct.AVRational, ptr, %struct.AVRational, %struct.AVPacket, i32, %struct.AVRational, i32 }
%struct.AVPacket = type { ptr, i64, i64, ptr, i32, i32, i32, ptr, i32, i64, i64, ptr, ptr, %struct.AVRational }
%struct.anon = type { ptr, i32 }
%struct.FFFrac = type { i64, i64, i64 }
%struct.AVCodecParameters = type { i32, i32, i32, ptr, i32, ptr, i32, i32, i64, i32, i32, i32, i32, i32, i32, %struct.AVRational, %struct.AVRational, i32, i32, i32, i32, i32, i32, i32, %struct.AVChannelLayout, i32, i32, i32, i32, i32, i32 }
%struct.AVChannelLayout = type { i32, i32, %union.anon, ptr }
%union.anon = type { i64 }
%union.av_intfloat32 = type { i32 }

@ff_codec_bmp_tags = external constant [0 x %struct.AVCodecTag], align 4

; Function Attrs: alwaysinline nounwind uwtable
define internal float @av_int2float(i32 noundef %0) #4 {
  %2 = alloca i32, align 4
  %3 = alloca %union.av_intfloat32, align 4
  store i32 %0, ptr %2, align 4, !tbaa !32
  call void @llvm.lifetime.start.p0(i64 4, ptr %3) #8
  %4 = load i32, ptr %2, align 4, !tbaa !32
  store i32 %4, ptr %3, align 4, !tbaa !13
  %5 = load float, ptr %3, align 4, !tbaa !13
  call void @llvm.lifetime.end.p0(i64 4, ptr %3) #8
  ret float %5
}

; Function Attrs: alwaysinline nounwind uwtable
define internal ptr @ffstream(ptr noundef %0) #4 {
  %2 = alloca ptr, align 8
  store ptr %0, ptr %2, align 8, !tbaa !33
  %3 = load ptr, ptr %2, align 8, !tbaa !33
  ret ptr %3
}

; Function Attrs: nounwind uwtable
define internal i32 @read_header(ptr noundef %0) #0 {
  %2 = alloca i32, align 4
  %3 = alloca ptr, align 8
  %4 = alloca ptr, align 8
  %5 = alloca ptr, align 8
  %6 = alloca %struct.AVRational, align 4
  %7 = alloca i32, align 4
  %8 = alloca i32, align 4
  %9 = alloca %struct.AVRational, align 4
  store ptr %0, ptr %3, align 8, !tbaa !14
  call void @llvm.lifetime.start.p0(i64 8, ptr %4) #8
  %10 = load ptr, ptr %3, align 8, !tbaa !14
  %11 = getelementptr inbounds nuw %struct.AVFormatContext, ptr %10, i32 0, i32 4
  %12 = load ptr, ptr %11, align 8, !tbaa !16
  store ptr %12, ptr %4, align 8, !tbaa !31
  call void @llvm.lifetime.start.p0(i64 8, ptr %5) #8
  call void @llvm.lifetime.start.p0(i64 8, ptr %6) #8
  call void @llvm.lifetime.start.p0(i64 4, ptr %7) #8
  %13 = load ptr, ptr %4, align 8, !tbaa !31
  %14 = call i64 @avio_skip(ptr noundef %13, i64 noundef 4)
  %15 = load ptr, ptr %4, align 8, !tbaa !31
  %16 = call i32 @avio_rb32(ptr noundef %15)
  store i32 %16, ptr %7, align 4, !tbaa !32
  %17 = load i32, ptr %7, align 4, !tbaa !32
  %18 = icmp ne i32 %17, 80
  br i1 %18, label %19, label %20

19:                                               ; preds = %1
  store i32 -5, ptr %2, align 4
  store i32 1, ptr %8, align 4
  br label %87

20:                                               ; preds = %1
  %21 = load ptr, ptr %4, align 8, !tbaa !31
  %22 = call i64 @avio_skip(ptr noundef %21, i64 noundef 20)
  %23 = load ptr, ptr %3, align 8, !tbaa !14
  %24 = call ptr @avformat_new_stream(ptr noundef %23, ptr noundef null)
  store ptr %24, ptr %5, align 8, !tbaa !33
  %25 = load ptr, ptr %5, align 8, !tbaa !33
  %26 = icmp ne ptr %25, null
  br i1 %26, label %28, label %27

27:                                               ; preds = %20
  store i32 -12, ptr %2, align 4
  store i32 1, ptr %8, align 4
  br label %87

28:                                               ; preds = %20
  %29 = load ptr, ptr %5, align 8, !tbaa !33
  %30 = call ptr @ffstream(ptr noundef %29)
  %31 = getelementptr inbounds nuw %struct.FFStream, ptr %30, i32 0, i32 41
  store i32 2, ptr %31, align 8, !tbaa !35
  %32 = load ptr, ptr %5, align 8, !tbaa !33
  %33 = getelementptr inbounds nuw %struct.AVStream, ptr %32, i32 0, i32 6
  store i64 0, ptr %33, align 8, !tbaa !52
  %34 = load ptr, ptr %4, align 8, !tbaa !31
  %35 = call i32 @avio_rb32(ptr noundef %34)
  %36 = zext i32 %35 to i64
  %37 = load ptr, ptr %5, align 8, !tbaa !33
  %38 = getelementptr inbounds nuw %struct.AVStream, ptr %37, i32 0, i32 7
  store i64 %36, ptr %38, align 8, !tbaa !53
  %39 = load ptr, ptr %5, align 8, !tbaa !33
  %40 = getelementptr inbounds nuw %struct.AVStream, ptr %39, i32 0, i32 8
  store i64 %36, ptr %40, align 8, !tbaa !54
  call void @llvm.lifetime.start.p0(i64 8, ptr %9) #8
  %41 = load ptr, ptr %4, align 8, !tbaa !31
  %42 = call i32 @avio_rb32(ptr noundef %41)
  %43 = call nsz float @av_int2float(i32 noundef %42)
  %44 = fpext nsz float %43 to double
  %45 = call i64 @av_d2q(double noundef %44, i32 noundef 2147483647) #7
  store i64 %45, ptr %9, align 4
  call void @llvm.memcpy.p0.p0.i64(ptr align 4 %6, ptr align 4 %9, i64 8, i1 false), !tbaa.struct !55
  call void @llvm.lifetime.end.p0(i64 8, ptr %9) #8
  %46 = load ptr, ptr %4, align 8, !tbaa !31
  %47 = call i32 @avio_rb32(ptr noundef %46)
  %48 = load ptr, ptr %5, align 8, !tbaa !33
  %49 = getelementptr inbounds nuw %struct.AVStream, ptr %48, i32 0, i32 3
  %50 = load ptr, ptr %49, align 8, !tbaa !56
  %51 = getelementptr inbounds nuw %struct.AVCodecParameters, ptr %50, i32 0, i32 13
  store i32 %47, ptr %51, align 8, !tbaa !57
  %52 = load ptr, ptr %4, align 8, !tbaa !31
  %53 = call i32 @avio_rb32(ptr noundef %52)
  %54 = load ptr, ptr %5, align 8, !tbaa !33
  %55 = getelementptr inbounds nuw %struct.AVStream, ptr %54, i32 0, i32 3
  %56 = load ptr, ptr %55, align 8, !tbaa !56
  %57 = getelementptr inbounds nuw %struct.AVCodecParameters, ptr %56, i32 0, i32 14
  store i32 %53, ptr %57, align 4, !tbaa !60
  %58 = load ptr, ptr %4, align 8, !tbaa !31
  %59 = call i64 @avio_skip(ptr noundef %58, i64 noundef 12)
  %60 = load ptr, ptr %5, align 8, !tbaa !33
  %61 = getelementptr inbounds nuw %struct.AVStream, ptr %60, i32 0, i32 3
  %62 = load ptr, ptr %61, align 8, !tbaa !56
  %63 = getelementptr inbounds nuw %struct.AVCodecParameters, ptr %62, i32 0, i32 0
  store i32 0, ptr %63, align 8, !tbaa !61
  %64 = load ptr, ptr %4, align 8, !tbaa !31
  %65 = call i32 @avio_rb32(ptr noundef %64)
  %66 = load ptr, ptr %5, align 8, !tbaa !33
  %67 = getelementptr inbounds nuw %struct.AVStream, ptr %66, i32 0, i32 3
  %68 = load ptr, ptr %67, align 8, !tbaa !56
  %69 = getelementptr inbounds nuw %struct.AVCodecParameters, ptr %68, i32 0, i32 2
  store i32 %65, ptr %69, align 8, !tbaa !62
  %70 = load ptr, ptr %5, align 8, !tbaa !33
  %71 = getelementptr inbounds nuw %struct.AVStream, ptr %70, i32 0, i32 3
  %72 = load ptr, ptr %71, align 8, !tbaa !56
  %73 = getelementptr inbounds nuw %struct.AVCodecParameters, ptr %72, i32 0, i32 2
  %74 = load i32, ptr %73, align 8, !tbaa !62
  %75 = call i32 @ff_codec_get_id(ptr noundef @ff_codec_bmp_tags, i32 noundef %74)
  %76 = load ptr, ptr %5, align 8, !tbaa !33
  %77 = getelementptr inbounds nuw %struct.AVStream, ptr %76, i32 0, i32 3
  %78 = load ptr, ptr %77, align 8, !tbaa !56
  %79 = getelementptr inbounds nuw %struct.AVCodecParameters, ptr %78, i32 0, i32 1
  store i32 %75, ptr %79, align 4, !tbaa !63
  %80 = load ptr, ptr %5, align 8, !tbaa !33
  %81 = getelementptr inbounds nuw %struct.AVRational, ptr %6, i32 0, i32 1
  %82 = load i32, ptr %81, align 4, !tbaa !64
  %83 = getelementptr inbounds nuw %struct.AVRational, ptr %6, i32 0, i32 0
  %84 = load i32, ptr %83, align 4, !tbaa !65
  call void @avpriv_set_pts_info(ptr noundef %80, i32 noundef 64, i32 noundef %82, i32 noundef %84)
  %85 = load ptr, ptr %4, align 8, !tbaa !31
  %86 = call i64 @avio_skip(ptr noundef %85, i64 noundef 20)
  store i32 0, ptr %2, align 4
  store i32 1, ptr %8, align 4
  br label %87

87:                                               ; preds = %28, %27, %19
  call void @llvm.lifetime.end.p0(i64 4, ptr %7) #8
  call void @llvm.lifetime.end.p0(i64 8, ptr %6) #8
  call void @llvm.lifetime.end.p0(i64 8, ptr %5) #8
  call void @llvm.lifetime.end.p0(i64 8, ptr %4) #8
  %88 = load i32, ptr %2, align 4
  ret i32 %88
}