; Function Attrs: nounwind uwtable
define internal range(i32 -12, 1) i32 @read_header(ptr noundef %0) #1 {
  %2 = getelementptr inbounds nuw i8, ptr %0, i64 32
  %3 = load ptr, ptr %2, align 8, !tbaa !12
  %4 = tail call i64 @avio_skip(ptr noundef %3, i64 noundef 4) #4
  %5 = tail call i32 @avio_rb32(ptr noundef %3) #4
  %.not = icmp eq i32 %5, 80
  br i1 %.not, label %6, label %36

6:                                                ; preds = %1
  %7 = tail call i64 @avio_skip(ptr noundef %3, i64 noundef 20) #4
  %8 = tail call ptr @avformat_new_stream(ptr noundef nonnull %0, ptr noundef null) #4
  %.not27 = icmp eq ptr %8, null
  br i1 %.not27, label %36, label %9

9:                                                ; preds = %6
  %10 = getelementptr inbounds nuw i8, ptr %8, i64 808
  store i32 2, ptr %10, align 8, !tbaa !27
  %11 = getelementptr inbounds nuw i8, ptr %8, i64 40
  store i64 0, ptr %11, align 8, !tbaa !45
  %12 = tail call i32 @avio_rb32(ptr noundef %3) #4
  %13 = zext i32 %12 to i64
  %14 = getelementptr inbounds nuw i8, ptr %8, i64 48
  store i64 %13, ptr %14, align 8, !tbaa !46
  %15 = getelementptr inbounds nuw i8, ptr %8, i64 56
  store i64 %13, ptr %15, align 8, !tbaa !47
  %16 = tail call i32 @avio_rb32(ptr noundef %3) #4
  %17 = bitcast i32 %16 to float
  %18 = fpext nsz float %17 to double
  %19 = tail call i64 @av_d2q(double noundef %18, i32 noundef 2147483647) #5
  %.sroa.01.0.extract.trunc = trunc i64 %19 to i32
  %.sroa.4.0.extract.shift = lshr i64 %19, 32
  %.sroa.4.0.extract.trunc = trunc nuw i64 %.sroa.4.0.extract.shift to i32
  %20 = tail call i32 @avio_rb32(ptr noundef %3) #4
  %21 = getelementptr inbounds nuw i8, ptr %8, i64 16
  %22 = load ptr, ptr %21, align 8, !tbaa !48
  %23 = getelementptr inbounds nuw i8, ptr %22, i64 72
  store i32 %20, ptr %23, align 8, !tbaa !49
  %24 = tail call i32 @avio_rb32(ptr noundef %3) #4
  %25 = load ptr, ptr %21, align 8, !tbaa !48
  %26 = getelementptr inbounds nuw i8, ptr %25, i64 76
  store i32 %24, ptr %26, align 4, !tbaa !52
  %27 = tail call i64 @avio_skip(ptr noundef %3, i64 noundef 12) #4
  %28 = load ptr, ptr %21, align 8, !tbaa !48
  store i32 0, ptr %28, align 8, !tbaa !53
  %29 = tail call i32 @avio_rb32(ptr noundef %3) #4
  %30 = load ptr, ptr %21, align 8, !tbaa !48
  %31 = getelementptr inbounds nuw i8, ptr %30, i64 8
  store i32 %29, ptr %31, align 8, !tbaa !54
  %32 = tail call i32 @ff_codec_get_id(ptr noundef nonnull @ff_codec_bmp_tags, i32 noundef %29) #4
  %33 = load ptr, ptr %21, align 8, !tbaa !48
  %34 = getelementptr inbounds nuw i8, ptr %33, i64 4
  store i32 %32, ptr %34, align 4, !tbaa !55
  tail call void @avpriv_set_pts_info(ptr noundef nonnull %8, i32 noundef 64, i32 noundef %.sroa.4.0.extract.trunc, i32 noundef %.sroa.01.0.extract.trunc) #4
  %35 = tail call i64 @avio_skip(ptr noundef %3, i64 noundef 20) #4
  br label %36

36:                                               ; preds = %6, %1, %9
  %.0 = phi i32 [ 0, %9 ], [ -5, %1 ], [ -12, %6 ]
  ret i32 %.0
}